; Function Attrs: mustprogress uwtable
define { <2 x float>, float } @_ZNK32pxrInternal_v0_24__pxrReserved__10GfMatrix4f17DecomposeRotationERKNS_7GfVec3fES3_S3_(ptr noundef nonnull readonly align 4 captures(none) dereferenceable(64) %0, ptr noundef nonnull readonly align 4 captures(none) dereferenceable(12) %1, ptr noundef nonnull readonly align 4 captures(none) dereferenceable(12) %2, ptr noundef nonnull readonly align 4 captures(none) dereferenceable(12) %3) local_unnamed_addr #10 align 2 {
  %5 = alloca %"class.pxrInternal_v0_24__pxrReserved__::GfQuatd", align 8
  %6 = alloca %"class.pxrInternal_v0_24__pxrReserved__::GfQuatf", align 8
  %7 = alloca %"class.pxrInternal_v0_24__pxrReserved__::GfVec3d", align 8
  %8 = alloca %"class.pxrInternal_v0_24__pxrReserved__::GfRotation", align 8
  %9 = alloca %"class.pxrInternal_v0_24__pxrReserved__::GfVec3d", align 8
  %10 = alloca %"class.pxrInternal_v0_24__pxrReserved__::GfVec3d", align 8
  %11 = alloca %"class.pxrInternal_v0_24__pxrReserved__::GfVec3d", align 8
  call void @llvm.lifetime.start.p0(i64 32, ptr nonnull %5)
  call void @llvm.lifetime.start.p0(i64 16, ptr nonnull %6)
  %12 = tail call { <2 x float>, <2 x float> } @_ZNK32pxrInternal_v0_24__pxrReserved__10GfMatrix4f19ExtractRotationQuatEv(ptr noundef nonnull readonly align 4 dereferenceable(64) %0), !noalias !46
  %13 = extractvalue { <2 x float>, <2 x float> } %12, 0
  store <2 x float> %13, ptr %6, align 8, !noalias !46
  %14 = getelementptr inbounds nuw i8, ptr %6, i64 8
  %15 = extractvalue { <2 x float>, <2 x float> } %12, 1
  store <2 x float> %15, ptr %14, align 8, !noalias !46
  call void @_ZN32pxrInternal_v0_24__pxrReserved__7GfQuatdC1ERKNS_7GfQuatfE(ptr noundef nonnull align 8 dereferenceable(32) %5, ptr noundef nonnull align 4 dereferenceable(16) %6), !noalias !46
  %16 = call noundef nonnull align 8 dereferenceable(32) ptr @_ZN32pxrInternal_v0_24__pxrReserved__10GfRotation7SetQuatERKNS_7GfQuatdE(ptr noundef nonnull align 8 dereferenceable(32) %8, ptr noundef nonnull align 8 dereferenceable(32) %5)
  call void @llvm.lifetime.end.p0(i64 32, ptr nonnull %5)
  call void @llvm.lifetime.end.p0(i64 16, ptr nonnull %6)
  %17 = load float, ptr %1, align 4
  %18 = fpext float %17 to double
  store double %18, ptr %9, align 8
  %19 = getelementptr inbounds nuw i8, ptr %1, i64 4
  %20 = load float, ptr %19, align 4
  %21 = fpext float %20 to double
  %22 = getelementptr inbounds nuw i8, ptr %9, i64 8
  store double %21, ptr %22, align 8
  %23 = getelementptr inbounds nuw i8, ptr %1, i64 8
  %24 = load float, ptr %23, align 4
  %25 = fpext float %24 to double
  %26 = getelementptr inbounds nuw i8, ptr %9, i64 16
  store double %25, ptr %26, align 8
  %27 = load float, ptr %2, align 4
  %28 = fpext float %27 to double
  store double %28, ptr %10, align 8
  %29 = getelementptr inbounds nuw i8, ptr %2, i64 4
  %30 = load float, ptr %29, align 4
  %31 = fpext float %30 to double
  %32 = getelementptr inbounds nuw i8, ptr %10, i64 8
  store double %31, ptr %32, align 8
  %33 = getelementptr inbounds nuw i8, ptr %2, i64 8
  %34 = load float, ptr %33, align 4
  %35 = fpext float %34 to double
  %36 = getelementptr inbounds nuw i8, ptr %10, i64 16
  store double %35, ptr %36, align 8
  %37 = load float, ptr %3, align 4
  %38 = fpext float %37 to double
  store double %38, ptr %11, align 8
  %39 = getelementptr inbounds nuw i8, ptr %3, i64 4
  %40 = load float, ptr %39, align 4
  %41 = fpext float %40 to double
  %42 = getelementptr inbounds nuw i8, ptr %11, i64 8
  store double %41, ptr %42, align 8
  %43 = getelementptr inbounds nuw i8, ptr %3, i64 8
  %44 = load float, ptr %43, align 4
  %45 = fpext float %44 to double
  %46 = getelementptr inbounds nuw i8, ptr %11, i64 16
  store double %45, ptr %46, align 8
  call void @_ZNK32pxrInternal_v0_24__pxrReserved__10GfRotation9DecomposeERKNS_7GfVec3dES3_S3_(ptr dead_on_unwind nonnull writable sret(%"class.pxrInternal_v0_24__pxrReserved__::GfVec3d") align 8 %7, ptr noundef nonnull align 8 dereferenceable(32) %8, ptr noundef nonnull align 8 dereferenceable(24) %9, ptr noundef nonnull align 8 dereferenceable(24) %10, ptr noundef nonnull align 8 dereferenceable(24) %11)
  %47 = load double, ptr %7, align 8
  %48 = fptrunc double %47 to float
  %.sroa.0.0.vec.insert = insertelement <2 x float> poison, float %48, i64 0
  %49 = getelementptr inbounds nuw i8, ptr %7, i64 8
  %50 = load double, ptr %49, align 8
  %51 = fptrunc double %50 to float
  %.sroa.0.4.vec.insert = insertelement <2 x float> %.sroa.0.0.vec.insert, float %51, i64 1
  %52 = getelementptr inbounds nuw i8, ptr %7, i64 16
  %53 = load double, ptr %52, align 8
  %54 = fptrunc double %53 to float
  %.fca.0.insert = insertvalue { <2 x float>, float } poison, <2 x float> %.sroa.0.4.vec.insert, 0
  %.fca.1.insert = insertvalue { <2 x float>, float } %.fca.0.insert, float %54, 1
  ret { <2 x float>, float } %.fca.1.insert
}